; Function Attrs: mustprogress nofree norecurse nosync nounwind willreturn memory(write, argmem: readwrite, inaccessiblemem: none) uwtable
define noundef i32 @php_stream_filter_prepend_ex(ptr noundef %0, ptr noundef %1) local_unnamed_addr #7 {
  %3 = load ptr, ptr %0, align 8
  %4 = getelementptr inbounds i8, ptr %1, i64 24
  store ptr %3, ptr %4, align 8
  %5 = getelementptr inbounds i8, ptr %1, i64 32
  store ptr null, ptr %5, align 8
  %6 = load ptr, ptr %0, align 8
  %.not = icmp eq ptr %6, null
  %7 = getelementptr inbounds i8, ptr %0, i64 8
  %8 = getelementptr inbounds i8, ptr %6, i64 32
  %.sink = select i1 %.not, ptr %7, ptr %8
  store ptr %1, ptr %.sink, align 8
  store ptr %1, ptr %0, align 8
  %9 = getelementptr inbounds i8, ptr %1, i64 48
  store ptr %0, ptr %9, align 8
  ret i32 0
}